target datalayout = "e-m:e-p270:32:32-p271:32:32-p272:64:64-i64:64-i128:128-f80:128-n8:16:32:64-S128"
target triple = "x86_64-pc-linux-gnu"

%struct.reftable_buf = type { i64, i64, ptr }
%struct.string_view = type { ptr, i64 }
%struct.reftable_block = type { ptr, i64, %struct.reftable_block_source }
%struct.reftable_block_source = type { ptr, ptr }
%struct.block_reader = type { i32, %struct.reftable_block, i32, ptr, ptr, i64, i32, ptr, i16, i32 }
%struct.block_iter = type { i32, ptr, i64, i32, %struct.reftable_buf, %struct.reftable_buf }
%struct.restart_needle_less_args = type { i32, %struct.reftable_buf, ptr }
%struct.reftable_record = type { i8, %union.anon }
%union.anon = type { %struct.reftable_log_record }
%struct.reftable_log_record = type { ptr, i64, i64, i32, %union.anon.1 }
%union.anon.1 = type { %struct.anon.2 }
%struct.anon.2 = type { [32 x i8], [32 x i8], ptr, ptr, i64, i16, ptr, i64 }

; Function Attrs: inlinehint nounwind uwtable
define internal void @string_view_consume(ptr noundef %0, i32 noundef %1) #6 {
  %3 = alloca ptr, align 8
  %4 = alloca i32, align 4
  store ptr %0, ptr %3, align 8, !tbaa !39
  store i32 %1, ptr %4, align 4, !tbaa !4
  %5 = load i32, ptr %4, align 4, !tbaa !4
  %6 = load ptr, ptr %3, align 8, !tbaa !39
  %7 = getelementptr inbounds nuw %struct.string_view, ptr %6, i32 0, i32 0
  %8 = load ptr, ptr %7, align 8, !tbaa !34
  %9 = sext i32 %5 to i64
  %10 = getelementptr inbounds i8, ptr %8, i64 %9
  store ptr %10, ptr %7, align 8, !tbaa !34
  %11 = load i32, ptr %4, align 4, !tbaa !4
  %12 = sext i32 %11 to i64
  %13 = load ptr, ptr %3, align 8, !tbaa !39
  %14 = getelementptr inbounds nuw %struct.string_view, ptr %13, i32 0, i32 1
  %15 = load i64, ptr %14, align 8, !tbaa !36
  %16 = sub i64 %15, %12
  store i64 %16, ptr %14, align 8, !tbaa !36
  ret void
}

; Function Attrs: nounwind uwtable
define dso_local i32 @block_iter_next(ptr noundef %0, ptr noundef %1) #0 {
  %3 = alloca i32, align 4
  %4 = alloca ptr, align 8
  %5 = alloca ptr, align 8
  %6 = alloca %struct.string_view, align 8
  %7 = alloca %struct.string_view, align 8
  %8 = alloca i8, align 1
  %9 = alloca i32, align 4
  %10 = alloca i32, align 4
  store ptr %0, ptr %4, align 8, !tbaa !91
  store ptr %1, ptr %5, align 8, !tbaa !30
  call void @llvm.lifetime.start.p0(i64 16, ptr %6) #10
  %11 = getelementptr inbounds nuw %struct.string_view, ptr %6, i32 0, i32 0
  %12 = load ptr, ptr %4, align 8, !tbaa !91
  %13 = getelementptr inbounds nuw %struct.block_iter, ptr %12, i32 0, i32 1
  %14 = load ptr, ptr %13, align 8, !tbaa !93
  %15 = load ptr, ptr %4, align 8, !tbaa !91
  %16 = getelementptr inbounds nuw %struct.block_iter, ptr %15, i32 0, i32 0
  %17 = load i32, ptr %16, align 8, !tbaa !97
  %18 = zext i32 %17 to i64
  %19 = getelementptr inbounds nuw i8, ptr %14, i64 %18
  store ptr %19, ptr %11, align 8, !tbaa !34
  %20 = getelementptr inbounds nuw %struct.string_view, ptr %6, i32 0, i32 1
  %21 = load ptr, ptr %4, align 8, !tbaa !91
  %22 = getelementptr inbounds nuw %struct.block_iter, ptr %21, i32 0, i32 2
  %23 = load i64, ptr %22, align 8, !tbaa !95
  %24 = load ptr, ptr %4, align 8, !tbaa !91
  %25 = getelementptr inbounds nuw %struct.block_iter, ptr %24, i32 0, i32 0
  %26 = load i32, ptr %25, align 8, !tbaa !97
  %27 = zext i32 %26 to i64
  %28 = sub i64 %23, %27
  store i64 %28, ptr %20, align 8, !tbaa !36
  call void @llvm.lifetime.start.p0(i64 16, ptr %7) #10
  call void @llvm.memcpy.p0.p0.i64(ptr align 8 %7, ptr align 8 %6, i64 16, i1 false), !tbaa.struct !37
  call void @llvm.lifetime.start.p0(i64 1, ptr %8) #10
  store i8 0, ptr %8, align 1, !tbaa !11
  call void @llvm.lifetime.start.p0(i64 4, ptr %9) #10
  store i32 0, ptr %9, align 4, !tbaa !4
  %29 = load ptr, ptr %4, align 8, !tbaa !91
  %30 = getelementptr inbounds nuw %struct.block_iter, ptr %29, i32 0, i32 0
  %31 = load i32, ptr %30, align 8, !tbaa !97
  %32 = zext i32 %31 to i64
  %33 = load ptr, ptr %4, align 8, !tbaa !91
  %34 = getelementptr inbounds nuw %struct.block_iter, ptr %33, i32 0, i32 2
  %35 = load i64, ptr %34, align 8, !tbaa !95
  %36 = icmp uge i64 %32, %35
  br i1 %36, label %37, label %38

37:                                               ; preds = %2
  store i32 1, ptr %3, align 4
  store i32 1, ptr %10, align 4
  br label %88

38:                                               ; preds = %2
  %39 = load ptr, ptr %4, align 8, !tbaa !91
  %40 = getelementptr inbounds nuw %struct.block_iter, ptr %39, i32 0, i32 4
  %41 = getelementptr inbounds nuw { ptr, i64 }, ptr %6, i32 0, i32 0
  %42 = load ptr, ptr %41, align 8
  %43 = getelementptr inbounds nuw { ptr, i64 }, ptr %6, i32 0, i32 1
  %44 = load i64, ptr %43, align 8
  %45 = call i32 @reftable_decode_key(ptr noundef %40, ptr noundef %8, ptr %42, i64 %44)
  store i32 %45, ptr %9, align 4, !tbaa !4
  %46 = load i32, ptr %9, align 4, !tbaa !4
  %47 = icmp slt i32 %46, 0
  br i1 %47, label %48, label %49

48:                                               ; preds = %38
  store i32 -1, ptr %3, align 4
  store i32 1, ptr %10, align 4
  br label %88

49:                                               ; preds = %38
  %50 = load ptr, ptr %4, align 8, !tbaa !91
  %51 = getelementptr inbounds nuw %struct.block_iter, ptr %50, i32 0, i32 4
  %52 = getelementptr inbounds nuw %struct.reftable_buf, ptr %51, i32 0, i32 1
  %53 = load i64, ptr %52, align 8, !tbaa !98
  %54 = icmp ne i64 %53, 0
  br i1 %54, label %56, label %55

55:                                               ; preds = %49
  store i32 -3, ptr %3, align 4
  store i32 1, ptr %10, align 4
  br label %88

56:                                               ; preds = %49
  %57 = load i32, ptr %9, align 4, !tbaa !4
  call void @string_view_consume(ptr noundef %6, i32 noundef %57)
  %58 = load ptr, ptr %5, align 8, !tbaa !30
  %59 = load ptr, ptr %4, align 8, !tbaa !91
  %60 = getelementptr inbounds nuw %struct.block_iter, ptr %59, i32 0, i32 4
  %61 = load i8, ptr %8, align 1, !tbaa !11
  %62 = load ptr, ptr %4, align 8, !tbaa !91
  %63 = getelementptr inbounds nuw %struct.block_iter, ptr %62, i32 0, i32 3
  %64 = load i32, ptr %63, align 8, !tbaa !96
  %65 = load ptr, ptr %4, align 8, !tbaa !91
  %66 = getelementptr inbounds nuw %struct.block_iter, ptr %65, i32 0, i32 5
  %67 = getelementptr inbounds nuw { ptr, i64 }, ptr %6, i32 0, i32 0
  %68 = load ptr, ptr %67, align 8
  %69 = getelementptr inbounds nuw { ptr, i64 }, ptr %6, i32 0, i32 1
  %70 = load i64, ptr %69, align 8
  %71 = call i32 @reftable_record_decode(ptr noundef %58, ptr noundef byval(%struct.reftable_buf) align 8 %60, i8 noundef zeroext %61, ptr %68, i64 %70, i32 noundef %64, ptr noundef %66)
  store i32 %71, ptr %9, align 4, !tbaa !4
  %72 = load i32, ptr %9, align 4, !tbaa !4
  %73 = icmp slt i32 %72, 0
  br i1 %73, label %74, label %75

74:                                               ; preds = %56
  store i32 -1, ptr %3, align 4
  store i32 1, ptr %10, align 4
  br label %88

75:                                               ; preds = %56
  %76 = load i32, ptr %9, align 4, !tbaa !4
  call void @string_view_consume(ptr noundef %6, i32 noundef %76)
  %77 = getelementptr inbounds nuw %struct.string_view, ptr %7, i32 0, i32 1
  %78 = load i64, ptr %77, align 8, !tbaa !36
  %79 = getelementptr inbounds nuw %struct.string_view, ptr %6, i32 0, i32 1
  %80 = load i64, ptr %79, align 8, !tbaa !36
  %81 = sub i64 %78, %80
  %82 = load ptr, ptr %4, align 8, !tbaa !91
  %83 = getelementptr inbounds nuw %struct.block_iter, ptr %82, i32 0, i32 0
  %84 = load i32, ptr %83, align 8, !tbaa !97
  %85 = zext i32 %84 to i64
  %86 = add i64 %85, %81
  %87 = trunc i64 %86 to i32
  store i32 %87, ptr %83, align 8, !tbaa !97
  store i32 0, ptr %3, align 4
  store i32 1, ptr %10, align 4
  br label %88

88:                                               ; preds = %75, %74, %55, %48, %37
  call void @llvm.lifetime.end.p0(i64 4, ptr %9) #10
  call void @llvm.lifetime.end.p0(i64 1, ptr %8) #10
  call void @llvm.lifetime.end.p0(i64 16, ptr %7) #10
  call void @llvm.lifetime.end.p0(i64 16, ptr %6) #10
  %89 = load i32, ptr %3, align 4
  ret i32 %89
}

; Function Attrs: nounwind uwtable
define dso_local zeroext i8 @block_reader_type(ptr noundef %0) #0 {
  %2 = alloca ptr, align 8
  store ptr %0, ptr %2, align 8, !tbaa !61
  %3 = load ptr, ptr %2, align 8, !tbaa !61
  %4 = getelementptr inbounds nuw %struct.block_reader, ptr %3, i32 0, i32 1
  %5 = getelementptr inbounds nuw %struct.reftable_block, ptr %4, i32 0, i32 0
  %6 = load ptr, ptr %5, align 8, !tbaa !90
  %7 = load ptr, ptr %2, align 8, !tbaa !61
  %8 = getelementptr inbounds nuw %struct.block_reader, ptr %7, i32 0, i32 0
  %9 = load i32, ptr %8, align 8, !tbaa !80
  %10 = zext i32 %9 to i64
  %11 = getelementptr inbounds nuw i8, ptr %6, i64 %10
  %12 = load i8, ptr %11, align 1, !tbaa !11
  ret i8 %12
}

; Function Attrs: nounwind uwtable
define internal i32 @block_reader_restart_offset(ptr noundef %0, i64 noundef %1) #0 {
  %3 = alloca ptr, align 8
  %4 = alloca i64, align 8
  store ptr %0, ptr %3, align 8, !tbaa !61
  store i64 %1, ptr %4, align 8, !tbaa !33
  %5 = load ptr, ptr %3, align 8, !tbaa !61
  %6 = getelementptr inbounds nuw %struct.block_reader, ptr %5, i32 0, i32 7
  %7 = load ptr, ptr %6, align 8, !tbaa !82
  %8 = load i64, ptr %4, align 8, !tbaa !33
  %9 = mul i64 3, %8
  %10 = getelementptr inbounds nuw i8, ptr %7, i64 %9
  %11 = call i32 @get_be24(ptr noundef %10)
  ret i32 %11
}

; Function Attrs: nounwind uwtable
define dso_local i32 @block_iter_seek_key(ptr noundef %0, ptr noundef %1, ptr noundef %2) #0 {
  %4 = alloca i32, align 4
  %5 = alloca ptr, align 8
  %6 = alloca ptr, align 8
  %7 = alloca ptr, align 8
  %8 = alloca %struct.restart_needle_less_args, align 8
  %9 = alloca %struct.reftable_record, align 8
  %10 = alloca i32, align 4
  %11 = alloca i64, align 8
  %12 = alloca i64, align 8
  %13 = alloca i32, align 4
  store ptr %0, ptr %5, align 8, !tbaa !91
  store ptr %1, ptr %6, align 8, !tbaa !61
  store ptr %2, ptr %7, align 8, !tbaa !41
  call void @llvm.lifetime.start.p0(i64 40, ptr %8) #10
  %14 = getelementptr inbounds nuw %struct.restart_needle_less_args, ptr %8, i32 0, i32 0
  store i32 0, ptr %14, align 8, !tbaa !99
  %15 = getelementptr i8, ptr %8, i64 4
  call void @llvm.memset.p0.i64(ptr align 4 %15, i8 0, i64 4, i1 false)
  %16 = getelementptr inbounds nuw %struct.restart_needle_less_args, ptr %8, i32 0, i32 1
  %17 = load ptr, ptr %7, align 8, !tbaa !41
  call void @llvm.memcpy.p0.p0.i64(ptr align 8 %16, ptr align 8 %17, i64 24, i1 false), !tbaa.struct !32
  %18 = getelementptr inbounds nuw %struct.restart_needle_less_args, ptr %8, i32 0, i32 2
  %19 = load ptr, ptr %6, align 8, !tbaa !61
  store ptr %19, ptr %18, align 8, !tbaa !101
  call void @llvm.lifetime.start.p0(i64 152, ptr %9) #10
  call void @llvm.lifetime.start.p0(i64 4, ptr %10) #10
  store i32 0, ptr %10, align 4, !tbaa !4
  call void @llvm.lifetime.start.p0(i64 8, ptr %11) #10
  %20 = load ptr, ptr %6, align 8, !tbaa !61
  %21 = getelementptr inbounds nuw %struct.block_reader, ptr %20, i32 0, i32 8
  %22 = load i16, ptr %21, align 8, !tbaa !81
  %23 = zext i16 %22 to i64
  %24 = call i64 @binsearch(i64 noundef %23, ptr noundef @restart_needle_less, ptr noundef %8)
  store i64 %24, ptr %11, align 8, !tbaa !33
  %25 = getelementptr inbounds nuw %struct.restart_needle_less_args, ptr %8, i32 0, i32 0
  %26 = load i32, ptr %25, align 8, !tbaa !99
  %27 = icmp ne i32 %26, 0
  br i1 %27, label %28, label %29

28:                                               ; preds = %3
  store i32 -3, ptr %10, align 4, !tbaa !4
  br label %107

29:                                               ; preds = %3
  %30 = load i64, ptr %11, align 8, !tbaa !33
  %31 = icmp ugt i64 %30, 0
  br i1 %31, label %32, label %39

32:                                               ; preds = %29
  %33 = load ptr, ptr %6, align 8, !tbaa !61
  %34 = load i64, ptr %11, align 8, !tbaa !33
  %35 = sub i64 %34, 1
  %36 = call i32 @block_reader_restart_offset(ptr noundef %33, i64 noundef %35)
  %37 = load ptr, ptr %5, align 8, !tbaa !91
  %38 = getelementptr inbounds nuw %struct.block_iter, ptr %37, i32 0, i32 0
  store i32 %36, ptr %38, align 8, !tbaa !97
  br label %46

39:                                               ; preds = %29
  %40 = load ptr, ptr %6, align 8, !tbaa !61
  %41 = getelementptr inbounds nuw %struct.block_reader, ptr %40, i32 0, i32 0
  %42 = load i32, ptr %41, align 8, !tbaa !80
  %43 = add i32 %42, 4
  %44 = load ptr, ptr %5, align 8, !tbaa !91
  %45 = getelementptr inbounds nuw %struct.block_iter, ptr %44, i32 0, i32 0
  store i32 %43, ptr %45, align 8, !tbaa !97
  br label %46

46:                                               ; preds = %39, %32
  %47 = load ptr, ptr %6, align 8, !tbaa !61
  %48 = getelementptr inbounds nuw %struct.block_reader, ptr %47, i32 0, i32 1
  %49 = getelementptr inbounds nuw %struct.reftable_block, ptr %48, i32 0, i32 0
  %50 = load ptr, ptr %49, align 8, !tbaa !90
  %51 = load ptr, ptr %5, align 8, !tbaa !91
  %52 = getelementptr inbounds nuw %struct.block_iter, ptr %51, i32 0, i32 1
  store ptr %50, ptr %52, align 8, !tbaa !93
  %53 = load ptr, ptr %6, align 8, !tbaa !61
  %54 = getelementptr inbounds nuw %struct.block_reader, ptr %53, i32 0, i32 6
  %55 = load i32, ptr %54, align 8, !tbaa !78
  %56 = zext i32 %55 to i64
  %57 = load ptr, ptr %5, align 8, !tbaa !91
  %58 = getelementptr inbounds nuw %struct.block_iter, ptr %57, i32 0, i32 2
  store i64 %56, ptr %58, align 8, !tbaa !95
  %59 = load ptr, ptr %6, align 8, !tbaa !61
  %60 = getelementptr inbounds nuw %struct.block_reader, ptr %59, i32 0, i32 2
  %61 = load i32, ptr %60, align 8, !tbaa !77
  %62 = load ptr, ptr %5, align 8, !tbaa !91
  %63 = getelementptr inbounds nuw %struct.block_iter, ptr %62, i32 0, i32 3
  store i32 %61, ptr %63, align 8, !tbaa !96
  %64 = load ptr, ptr %6, align 8, !tbaa !61
  %65 = call zeroext i8 @block_reader_type(ptr noundef %64)
  call void @reftable_record_init(ptr noundef %9, i8 noundef zeroext %65)
  br label %66

66:                                               ; preds = %106, %46
  br label %67

67:                                               ; preds = %66
  call void @llvm.lifetime.start.p0(i64 8, ptr %12) #10
  %68 = load ptr, ptr %5, align 8, !tbaa !91
  %69 = getelementptr inbounds nuw %struct.block_iter, ptr %68, i32 0, i32 0
  %70 = load i32, ptr %69, align 8, !tbaa !97
  %71 = zext i32 %70 to i64
  store i64 %71, ptr %12, align 8, !tbaa !33
  %72 = load ptr, ptr %5, align 8, !tbaa !91
  %73 = call i32 @block_iter_next(ptr noundef %72, ptr noundef %9)
  store i32 %73, ptr %10, align 4, !tbaa !4
  %74 = load i32, ptr %10, align 4, !tbaa !4
  %75 = icmp slt i32 %74, 0
  br i1 %75, label %76, label %77

76:                                               ; preds = %67
  store i32 2, ptr %13, align 4
  br label %104

77:                                               ; preds = %67
  %78 = load i32, ptr %10, align 4, !tbaa !4
  %79 = icmp sgt i32 %78, 0
  br i1 %79, label %80, label %85

80:                                               ; preds = %77
  %81 = load i64, ptr %12, align 8, !tbaa !33
  %82 = trunc i64 %81 to i32
  %83 = load ptr, ptr %5, align 8, !tbaa !91
  %84 = getelementptr inbounds nuw %struct.block_iter, ptr %83, i32 0, i32 0
  store i32 %82, ptr %84, align 8, !tbaa !97
  store i32 0, ptr %10, align 4, !tbaa !4
  store i32 2, ptr %13, align 4
  br label %104

85:                                               ; preds = %77
  %86 = load ptr, ptr %5, align 8, !tbaa !91
  %87 = getelementptr inbounds nuw %struct.block_iter, ptr %86, i32 0, i32 4
  %88 = call i32 @reftable_record_key(ptr noundef %9, ptr noundef %87)
  store i32 %88, ptr %10, align 4, !tbaa !4
  %89 = load i32, ptr %10, align 4, !tbaa !4
  %90 = icmp slt i32 %89, 0
  br i1 %90, label %91, label %92

91:                                               ; preds = %85
  store i32 2, ptr %13, align 4
  br label %104

92:                                               ; preds = %85
  %93 = load ptr, ptr %5, align 8, !tbaa !91
  %94 = getelementptr inbounds nuw %struct.block_iter, ptr %93, i32 0, i32 4
  %95 = load ptr, ptr %7, align 8, !tbaa !41
  %96 = call i32 @reftable_buf_cmp(ptr noundef %94, ptr noundef %95)
  %97 = icmp sge i32 %96, 0
  br i1 %97, label %98, label %103

98:                                               ; preds = %92
  %99 = load i64, ptr %12, align 8, !tbaa !33
  %100 = trunc i64 %99 to i32
  %101 = load ptr, ptr %5, align 8, !tbaa !91
  %102 = getelementptr inbounds nuw %struct.block_iter, ptr %101, i32 0, i32 0
  store i32 %100, ptr %102, align 8, !tbaa !97
  store i32 2, ptr %13, align 4
  br label %104

103:                                              ; preds = %92
  store i32 0, ptr %13, align 4
  br label %104

104:                                              ; preds = %98, %91, %80, %76, %103
  call void @llvm.lifetime.end.p0(i64 8, ptr %12) #10
  %105 = load i32, ptr %13, align 4
  switch i32 %105, label %109 [
    i32 0, label %106
    i32 2, label %107
  ]

106:                                              ; preds = %104
  br label %66

107:                                              ; preds = %104, %28
  call void @reftable_record_release(ptr noundef %9)
  %108 = load i32, ptr %10, align 4, !tbaa !4
  store i32 %108, ptr %4, align 4
  store i32 1, ptr %13, align 4
  br label %109

109:                                              ; preds = %107, %104
  call void @llvm.lifetime.end.p0(i64 8, ptr %11) #10
  call void @llvm.lifetime.end.p0(i64 4, ptr %10) #10
  call void @llvm.lifetime.end.p0(i64 152, ptr %9) #10
  call void @llvm.lifetime.end.p0(i64 40, ptr %8) #10
  %110 = load i32, ptr %4, align 4
  ret i32 %110
}