; Function Attrs: nounwind uwtable
define dso_local i32 @block_iter_seek_key(ptr noundef %0, ptr noundef %1, ptr noundef %2) local_unnamed_addr #2 {
  %4 = alloca i8, align 1
  %5 = alloca %struct.restart_needle_less_args, align 8
  %6 = alloca %struct.reftable_record, align 8
  call void @llvm.lifetime.start.p0(i64 40, ptr nonnull %5) #11
  store i32 0, ptr %5, align 8, !tbaa !73
  %7 = getelementptr inbounds nuw i8, ptr %5, i64 4
  store i32 0, ptr %7, align 4
  %8 = getelementptr inbounds nuw i8, ptr %5, i64 8
  call void @llvm.memcpy.p0.p0.i64(ptr noundef nonnull align 8 dereferenceable(24) %8, ptr noundef nonnull align 8 dereferenceable(24) %2, i64 24, i1 false), !tbaa.struct !26
  %9 = getelementptr inbounds nuw i8, ptr %5, i64 32
  store ptr %1, ptr %9, align 8, !tbaa !76
  call void @llvm.lifetime.start.p0(i64 152, ptr nonnull %6) #11
  %10 = getelementptr inbounds nuw i8, ptr %1, i64 88
  %11 = load i16, ptr %10, align 8, !tbaa !64
  %12 = zext i16 %11 to i64
  %13 = call i64 @binsearch(i64 noundef %12, ptr noundef nonnull @restart_needle_less, ptr noundef nonnull %5) #11
  %14 = load i32, ptr %5, align 8, !tbaa !73
  %.not = icmp eq i32 %14, 0
  br i1 %.not, label %15, label %.thread43

15:                                               ; preds = %3
  %.not37 = icmp eq i64 %13, 0
  br i1 %.not37, label %22, label %16

16:                                               ; preds = %15
  %17 = getelementptr i8, ptr %1, i64 80
  %.val = load ptr, ptr %17, align 8, !tbaa !65
  %18 = mul i64 %13, 3
  %19 = getelementptr i8, ptr %.val, i64 %18
  %20 = getelementptr i8, ptr %19, i64 -3
  %21 = call i32 @get_be24(ptr noundef %20) #11
  %.pre = load i32, ptr %1, align 8, !tbaa !63
  br label %25

22:                                               ; preds = %15
  %23 = load i32, ptr %1, align 8, !tbaa !63
  %24 = add i32 %23, 4
  br label %25

25:                                               ; preds = %22, %16
  %26 = phi i32 [ %23, %22 ], [ %.pre, %16 ]
  %storemerge = phi i32 [ %24, %22 ], [ %21, %16 ]
  store i32 %storemerge, ptr %0, align 8, !tbaa !71
  %27 = getelementptr inbounds nuw i8, ptr %1, i64 8
  %28 = load ptr, ptr %27, align 8, !tbaa !66
  %29 = getelementptr inbounds nuw i8, ptr %0, i64 8
  store ptr %28, ptr %29, align 8, !tbaa !67
  %30 = getelementptr inbounds nuw i8, ptr %1, i64 72
  %31 = load i32, ptr %30, align 8, !tbaa !61
  %32 = zext i32 %31 to i64
  %33 = getelementptr inbounds nuw i8, ptr %0, i64 16
  store i64 %32, ptr %33, align 8, !tbaa !69
  %34 = getelementptr inbounds nuw i8, ptr %1, i64 40
  %35 = load i32, ptr %34, align 8, !tbaa !60
  %36 = getelementptr inbounds nuw i8, ptr %0, i64 24
  store i32 %35, ptr %36, align 8, !tbaa !70
  %37 = zext i32 %26 to i64
  %38 = getelementptr inbounds nuw i8, ptr %28, i64 %37
  %39 = load i8, ptr %38, align 1, !tbaa !19
  call void @reftable_record_init(ptr noundef nonnull %6, i8 noundef zeroext %39) #11
  %40 = getelementptr inbounds nuw i8, ptr %0, i64 32
  %41 = getelementptr inbounds nuw i8, ptr %0, i64 40
  %42 = getelementptr inbounds nuw i8, ptr %0, i64 56
  br label %43

43:                                               ; preds = %69, %25
  %44 = load i32, ptr %0, align 8, !tbaa !71
  %45 = load ptr, ptr %29, align 8, !tbaa !67
  %46 = zext i32 %44 to i64
  %47 = getelementptr inbounds nuw i8, ptr %45, i64 %46
  %48 = load i64, ptr %33, align 8, !tbaa !69
  %49 = sub i64 %48, %46
  call void @llvm.lifetime.start.p0(i64 1, ptr nonnull %4) #11
  store i8 0, ptr %4, align 1, !tbaa !19
  %.not.i = icmp ugt i64 %48, %46
  br i1 %.not.i, label %50, label %63

50:                                               ; preds = %43
  %51 = call i32 @reftable_decode_key(ptr noundef nonnull %40, ptr noundef nonnull %4, ptr %47, i64 %49) #11
  %52 = icmp slt i32 %51, 0
  br i1 %52, label %block_iter_next.exit.thread, label %53

53:                                               ; preds = %50
  %54 = load i64, ptr %41, align 8, !tbaa !72
  %.not19.i = icmp eq i64 %54, 0
  br i1 %.not19.i, label %block_iter_next.exit.thread, label %55

55:                                               ; preds = %53
  %56 = zext nneg i32 %51 to i64
  %57 = getelementptr inbounds nuw i8, ptr %47, i64 %56
  %58 = sub i64 %49, %56
  %59 = load i8, ptr %4, align 1, !tbaa !19
  %60 = load i32, ptr %36, align 8, !tbaa !70
  %61 = call i32 @reftable_record_decode(ptr noundef nonnull %6, ptr noundef nonnull byval(%struct.reftable_buf) align 8 %40, i8 noundef zeroext %59, ptr %57, i64 %58, i32 noundef %60, ptr noundef nonnull %42) #11
  %62 = icmp slt i32 %61, 0
  br i1 %62, label %block_iter_next.exit.thread, label %64

block_iter_next.exit.thread:                      ; preds = %50, %53, %55
  %.0.i.ph = phi i32 [ -1, %55 ], [ -3, %53 ], [ -1, %50 ]
  call void @llvm.lifetime.end.p0(i64 1, ptr nonnull %4) #11
  br label %.thread43

63:                                               ; preds = %43
  call void @llvm.lifetime.end.p0(i64 1, ptr nonnull %4) #11
  store i32 %44, ptr %0, align 8, !tbaa !71
  br label %.thread43

64:                                               ; preds = %55
  %narrow.i = add nuw i32 %61, %51
  %65 = load i32, ptr %0, align 8, !tbaa !71
  %66 = add i32 %narrow.i, %65
  store i32 %66, ptr %0, align 8, !tbaa !71
  call void @llvm.lifetime.end.p0(i64 1, ptr nonnull %4) #11
  %67 = call i32 @reftable_record_key(ptr noundef nonnull %6, ptr noundef nonnull %40) #11
  %68 = icmp slt i32 %67, 0
  br i1 %68, label %.thread43, label %69

69:                                               ; preds = %64
  %70 = call i32 @reftable_buf_cmp(ptr noundef nonnull %40, ptr noundef nonnull %2) #11
  %71 = icmp sgt i32 %70, -1
  br i1 %71, label %72, label %43

72:                                               ; preds = %69
  store i32 %44, ptr %0, align 8, !tbaa !71
  br label %.thread43

.thread43:                                        ; preds = %64, %block_iter_next.exit.thread, %72, %63, %3
  %.031 = phi i32 [ -3, %3 ], [ %.0.i.ph, %block_iter_next.exit.thread ], [ %67, %72 ], [ 0, %63 ], [ %67, %64 ]
  call void @reftable_record_release(ptr noundef nonnull %6) #11
  call void @llvm.lifetime.end.p0(i64 152, ptr nonnull %6) #11
  call void @llvm.lifetime.end.p0(i64 40, ptr nonnull %5) #11
  ret i32 %.031
}